; Function Attrs: nounwind uwtable
define noalias ptr @H5Tget_member_name(i64 noundef %0, i32 noundef %1) local_unnamed_addr #0 {
  %3 = load i8, ptr @H5_libinit_g, align 1
  %4 = trunc i8 %3 to i1
  %5 = load i8, ptr @H5_libterm_g, align 1
  %6 = trunc i8 %5 to i1
  %7 = select i1 %4, i1 true, i1 %6
  br i1 %7, label %15, label %8

8:                                                ; preds = %2
  %9 = tail call i32 @H5_init_library() #5
  %10 = icmp slt i32 %9, 0
  br i1 %10, label %11, label %15

11:                                               ; preds = %8
  %12 = load i64, ptr @H5E_FUNC_g, align 8
  %13 = load i64, ptr @H5E_CANTINIT_g, align 8
  %14 = tail call i32 (ptr, ptr, i32, i64, i64, ptr, ...) @H5E_printf_stack(ptr noundef nonnull @.str, ptr noundef nonnull @__func__.H5Tget_member_name, i32 noundef 115, i64 noundef %12, i64 noundef %13, ptr noundef nonnull @.str.1) #5
  br label %.thread21

15:                                               ; preds = %8, %2
  %16 = tail call i32 @H5CX_push() #5
  %17 = icmp slt i32 %16, 0
  br i1 %17, label %18, label %22

18:                                               ; preds = %15
  %19 = load i64, ptr @H5E_FUNC_g, align 8
  %20 = load i64, ptr @H5E_CANTSET_g, align 8
  %21 = tail call i32 (ptr, ptr, i32, i64, i64, ptr, ...) @H5E_printf_stack(ptr noundef nonnull @.str, ptr noundef nonnull @__func__.H5Tget_member_name, i32 noundef 115, i64 noundef %19, i64 noundef %20, ptr noundef nonnull @.str.2) #5
  br label %.thread21

22:                                               ; preds = %15
  %23 = tail call i32 @H5E_clear_stack() #5
  %24 = tail call ptr @H5I_object_verify(i64 noundef %0, i32 noundef 3) #5
  %25 = icmp eq ptr %24, null
  br i1 %25, label %26, label %30

26:                                               ; preds = %22
  %27 = load i64, ptr @H5E_ARGS_g, align 8
  %28 = load i64, ptr @H5E_BADTYPE_g, align 8
  %29 = tail call i32 (ptr, ptr, i32, i64, i64, ptr, ...) @H5E_printf_stack(ptr noundef nonnull @.str, ptr noundef nonnull @__func__.H5Tget_member_name, i32 noundef 119, i64 noundef %27, i64 noundef %28, ptr noundef nonnull @.str.3) #5
  br label %.thread27

30:                                               ; preds = %22
  %31 = tail call noalias ptr @H5T__get_member_name(ptr noundef nonnull %24, i32 noundef %1)
  %32 = icmp eq ptr %31, null
  br i1 %32, label %33, label %38

33:                                               ; preds = %30
  %34 = load i64, ptr @H5E_ARGS_g, align 8
  %35 = load i64, ptr @H5E_BADTYPE_g, align 8
  %36 = tail call i32 (ptr, ptr, i32, i64, i64, ptr, ...) @H5E_printf_stack(ptr noundef nonnull @.str, ptr noundef nonnull @__func__.H5Tget_member_name, i32 noundef 122, i64 noundef %34, i64 noundef %35, ptr noundef nonnull @.str.6) #5
  br label %.thread27

.thread27:                                        ; preds = %33, %26
  %37 = tail call i32 @H5CX_pop(i1 noundef zeroext true) #5
  br label %.thread21

38:                                               ; preds = %30
  %39 = tail call i32 @H5CX_pop(i1 noundef zeroext true) #5
  br label %41

.thread21:                                        ; preds = %18, %11, %.thread27
  %40 = tail call i32 @H5E_dump_api_stack() #5
  br label %41

41:                                               ; preds = %38, %.thread21
  %.0101624 = phi ptr [ null, %.thread21 ], [ %31, %38 ]
  ret ptr %.0101624
}